target datalayout = "e-m:e-p270:32:32-p271:32:32-p272:64:64-i64:64-i128:128-f80:128-n8:16:32:64-S128"
target triple = "x86_64-pc-linux-gnu"

%struct.jpeg_decompress_struct = type { ptr, ptr, ptr, ptr, i32, i32, ptr, i32, i32, i32, i32, i32, i32, i32, double, i32, i32, i32, i32, i32, i32, i32, i32, i32, i32, i32, i32, i32, i32, i32, i32, i32, i32, ptr, i32, i32, i32, i32, i32, ptr, [4 x ptr], [4 x ptr], [4 x ptr], i32, ptr, i32, i32, [16 x i8], [16 x i8], [16 x i8], i32, i32, i8, i8, i8, i16, i16, i32, i8, i32, ptr, i32, i32, i32, i32, ptr, i32, [4 x ptr], i32, i32, i32, [10 x i32], i32, i32, i32, i32, i32, ptr, ptr, ptr, ptr, ptr, ptr, ptr, ptr, ptr, ptr, ptr }
%struct.jpeg_error_mgr = type { ptr, ptr, ptr, ptr, ptr, i32, %union.anon, i32, i64, ptr, i32, ptr, i32, i32 }
%union.anon = type { [8 x i32], [48 x i8] }
%struct.jpeg_marker_reader = type { ptr, ptr, ptr, i32, i32, i32, i32 }
%struct.jpeg_memory_mgr = type { ptr, ptr, ptr, ptr, ptr, ptr, ptr, ptr, ptr, ptr, ptr, i64, i64 }
%struct.my_marker_reader = type { %struct.jpeg_marker_reader, ptr, [16 x ptr], i32, [16 x i32], ptr, i32 }

; Function Attrs: nounwind uwtable
define hidden void @jSaveMarkers(ptr noundef %0, i32 noundef %1, i32 noundef %2) #0 {
  %4 = alloca ptr, align 8
  %5 = alloca i32, align 4
  %6 = alloca i32, align 4
  %7 = alloca ptr, align 8
  %8 = alloca i64, align 8
  %9 = alloca ptr, align 8
  store ptr %0, ptr %4, align 8
  store i32 %1, ptr %5, align 4
  store i32 %2, ptr %6, align 4
  %10 = load ptr, ptr %4, align 8
  %11 = getelementptr inbounds %struct.jpeg_decompress_struct, ptr %10, i32 0, i32 82
  %12 = load ptr, ptr %11, align 8
  store ptr %12, ptr %7, align 8
  %13 = load ptr, ptr %4, align 8
  %14 = getelementptr inbounds %struct.jpeg_decompress_struct, ptr %13, i32 0, i32 1
  %15 = load ptr, ptr %14, align 8
  %16 = getelementptr inbounds %struct.jpeg_memory_mgr, ptr %15, i32 0, i32 12
  %17 = load i64, ptr %16, align 8
  %18 = sub i64 %17, 32
  store i64 %18, ptr %8, align 8
  %19 = load i32, ptr %6, align 4
  %20 = zext i32 %19 to i64
  %21 = load i64, ptr %8, align 8
  %22 = icmp ugt i64 %20, %21
  br i1 %22, label %23, label %26

23:                                               ; preds = %3
  %24 = load i64, ptr %8, align 8
  %25 = trunc i64 %24 to i32
  store i32 %25, ptr %6, align 4
  br label %26

26:                                               ; preds = %23, %3
  %27 = load i32, ptr %6, align 4
  %28 = icmp ne i32 %27, 0
  br i1 %28, label %29, label %45

29:                                               ; preds = %26
  store ptr @save_marker, ptr %9, align 8
  %30 = load i32, ptr %5, align 4
  %31 = icmp eq i32 %30, 224
  br i1 %31, label %32, label %36

32:                                               ; preds = %29
  %33 = load i32, ptr %6, align 4
  %34 = icmp ult i32 %33, 14
  br i1 %34, label %35, label %36

35:                                               ; preds = %32
  store i32 14, ptr %6, align 4
  br label %44

36:                                               ; preds = %32, %29
  %37 = load i32, ptr %5, align 4
  %38 = icmp eq i32 %37, 238
  br i1 %38, label %39, label %43

39:                                               ; preds = %36
  %40 = load i32, ptr %6, align 4
  %41 = icmp ult i32 %40, 12
  br i1 %41, label %42, label %43

42:                                               ; preds = %39
  store i32 12, ptr %6, align 4
  br label %43

43:                                               ; preds = %42, %39, %36
  br label %44

44:                                               ; preds = %43, %35
  br label %53

45:                                               ; preds = %26
  store ptr @skip_variable, ptr %9, align 8
  %46 = load i32, ptr %5, align 4
  %47 = icmp eq i32 %46, 224
  br i1 %47, label %51, label %48

48:                                               ; preds = %45
  %49 = load i32, ptr %5, align 4
  %50 = icmp eq i32 %49, 238
  br i1 %50, label %51, label %52

51:                                               ; preds = %48, %45
  store ptr @get_interesting_appn, ptr %9, align 8
  br label %52

52:                                               ; preds = %51, %48
  br label %53

53:                                               ; preds = %52, %44
  %54 = load i32, ptr %5, align 4
  %55 = icmp eq i32 %54, 254
  br i1 %55, label %56, label %63

56:                                               ; preds = %53
  %57 = load ptr, ptr %9, align 8
  %58 = load ptr, ptr %7, align 8
  %59 = getelementptr inbounds %struct.my_marker_reader, ptr %58, i32 0, i32 1
  store ptr %57, ptr %59, align 8
  %60 = load i32, ptr %6, align 4
  %61 = load ptr, ptr %7, align 8
  %62 = getelementptr inbounds %struct.my_marker_reader, ptr %61, i32 0, i32 3
  store i32 %60, ptr %62, align 8
  br label %102

63:                                               ; preds = %53
  %64 = load i32, ptr %5, align 4
  %65 = icmp sge i32 %64, 224
  br i1 %65, label %66, label %84

66:                                               ; preds = %63
  %67 = load i32, ptr %5, align 4
  %68 = icmp sle i32 %67, 239
  br i1 %68, label %69, label %84

69:                                               ; preds = %66
  %70 = load ptr, ptr %9, align 8
  %71 = load ptr, ptr %7, align 8
  %72 = getelementptr inbounds %struct.my_marker_reader, ptr %71, i32 0, i32 2
  %73 = load i32, ptr %5, align 4
  %74 = sub nsw i32 %73, 224
  %75 = sext i32 %74 to i64
  %76 = getelementptr inbounds [16 x ptr], ptr %72, i64 0, i64 %75
  store ptr %70, ptr %76, align 8
  %77 = load i32, ptr %6, align 4
  %78 = load ptr, ptr %7, align 8
  %79 = getelementptr inbounds %struct.my_marker_reader, ptr %78, i32 0, i32 4
  %80 = load i32, ptr %5, align 4
  %81 = sub nsw i32 %80, 224
  %82 = sext i32 %81 to i64
  %83 = getelementptr inbounds [16 x i32], ptr %79, i64 0, i64 %82
  store i32 %77, ptr %83, align 4
  br label %101

84:                                               ; preds = %66, %63
  %85 = load ptr, ptr %4, align 8
  %86 = getelementptr inbounds %struct.jpeg_decompress_struct, ptr %85, i32 0, i32 0
  %87 = load ptr, ptr %86, align 8
  %88 = getelementptr inbounds %struct.jpeg_error_mgr, ptr %87, i32 0, i32 5
  store i32 68, ptr %88, align 8
  %89 = load i32, ptr %5, align 4
  %90 = load ptr, ptr %4, align 8
  %91 = getelementptr inbounds %struct.jpeg_decompress_struct, ptr %90, i32 0, i32 0
  %92 = load ptr, ptr %91, align 8
  %93 = getelementptr inbounds %struct.jpeg_error_mgr, ptr %92, i32 0, i32 6
  %94 = getelementptr inbounds [8 x i32], ptr %93, i64 0, i64 0
  store i32 %89, ptr %94, align 4
  %95 = load ptr, ptr %4, align 8
  %96 = getelementptr inbounds %struct.jpeg_decompress_struct, ptr %95, i32 0, i32 0
  %97 = load ptr, ptr %96, align 8
  %98 = getelementptr inbounds %struct.jpeg_error_mgr, ptr %97, i32 0, i32 0
  %99 = load ptr, ptr %98, align 8
  %100 = load ptr, ptr %4, align 8
  call void %99(ptr noundef %100)
  br label %101

101:                                              ; preds = %84, %69
  br label %102

102:                                              ; preds = %101, %56
  ret void
}