; Function Attrs: nounwind uwtable
define hidden void @jSaveMarkers(ptr noundef %0, i32 noundef %1, i32 noundef %2) local_unnamed_addr #0 {
  %4 = getelementptr inbounds i8, ptr %0, i64 584
  %5 = load ptr, ptr %4, align 8
  %6 = getelementptr inbounds i8, ptr %0, i64 8
  %7 = load ptr, ptr %6, align 8
  %8 = getelementptr inbounds i8, ptr %7, i64 96
  %9 = load i64, ptr %8, align 8
  %10 = add i64 %9, -32
  %11 = zext i32 %2 to i64
  %12 = icmp ult i64 %10, %11
  %13 = trunc nuw i64 %10 to i32
  %spec.select = select i1 %12, i32 %13, i32 %2
  %.not = icmp eq i32 %spec.select, 0
  %14 = icmp eq i32 %1, 224
  br i1 %.not, label %20, label %15

15:                                               ; preds = %3
  %16 = icmp ult i32 %spec.select, 14
  %or.cond = and i1 %14, %16
  br i1 %or.cond, label %.thread44, label %17

17:                                               ; preds = %15
  %18 = icmp eq i32 %1, 238
  %19 = tail call i32 @llvm.umax.i32(i32 %spec.select, i32 12)
  %spec.store.select = select i1 %18, i32 %19, i32 %spec.select
  br label %22

20:                                               ; preds = %3
  %21 = icmp eq i32 %1, 238
  %or.cond5 = or i1 %14, %21
  %spec.store.select8 = select i1 %or.cond5, ptr @get_interesting_appn, ptr @skip_variable
  br label %22

22:                                               ; preds = %20, %17
  %.1 = phi i32 [ %spec.store.select, %17 ], [ 0, %20 ]
  %.0 = phi ptr [ @save_marker, %17 ], [ %spec.store.select8, %20 ]
  %23 = icmp eq i32 %1, 254
  br i1 %23, label %24, label %27

24:                                               ; preds = %22
  %25 = getelementptr inbounds i8, ptr %5, i64 40
  store ptr %.0, ptr %25, align 8
  %26 = getelementptr inbounds i8, ptr %5, i64 176
  store i32 %.1, ptr %26, align 8
  br label %42

27:                                               ; preds = %22
  %28 = and i32 %1, -16
  %or.cond7 = icmp eq i32 %28, 224
  br i1 %or.cond7, label %.thread44, label %35

.thread44:                                        ; preds = %15, %27
  %.14249 = phi i32 [ %.1, %27 ], [ 14, %15 ]
  %.04348 = phi ptr [ %.0, %27 ], [ @save_marker, %15 ]
  %29 = getelementptr inbounds i8, ptr %5, i64 48
  %30 = add nsw i32 %1, -224
  %31 = zext nneg i32 %30 to i64
  %32 = getelementptr inbounds [16 x ptr], ptr %29, i64 0, i64 %31
  store ptr %.04348, ptr %32, align 8
  %33 = getelementptr inbounds i8, ptr %5, i64 180
  %34 = getelementptr inbounds [16 x i32], ptr %33, i64 0, i64 %31
  store i32 %.14249, ptr %34, align 4
  br label %42

35:                                               ; preds = %27
  %36 = load ptr, ptr %0, align 8
  %37 = getelementptr inbounds i8, ptr %36, i64 40
  store i32 68, ptr %37, align 8
  %38 = load ptr, ptr %0, align 8
  %39 = getelementptr inbounds i8, ptr %38, i64 44
  store i32 %1, ptr %39, align 4
  %40 = load ptr, ptr %0, align 8
  %41 = load ptr, ptr %40, align 8
  tail call void %41(ptr noundef nonnull %0) #7
  br label %42

42:                                               ; preds = %.thread44, %35, %24
  ret void
}